#include <math.h>
#include <stdio.h>
#include <stdlib.h>
#include <string.h>
#include <iostream>
using namespace std;

int main()
{
	int a[100001]={0};
 int i,n,k,num=0;
 cin>>n;
 for(i=1;i<=n;i++)
 {
  cin>>a[i];
 }
 cin>>k;
 for(i=1;i<=n-num;i++)
 {
	 int j;
 if(a[i]==k)
 {
	 j=i;
	 while(j<n-num)
	 {
	  a[j]=a[j+1];j++;
	 }
	 num++;
	 i--;                      //??????????
 }
  }
 i=1;
 while(i<=n-num)             //????????a?1???????????????????
 { 
	 if(i==1)
		 cout<<a[1];
	 else
  cout<<" "<<a[i];
	 i++;
 }
 return 0;
}